; Function Attrs: null_pointer_is_valid sspstrong uwtable
define internal noundef i32 @sll_conversation_packet(ptr noundef initializes((24, 28)) %0, ptr noundef %1, ptr readnone captures(none) %2, ptr noundef %3, i32 noundef %4) #0 {
  %6 = getelementptr inbounds nuw i8, ptr %0, i64 24
  store i32 %4, ptr %6, align 8
  %7 = getelementptr inbounds nuw i8, ptr %1, i64 80
  %8 = load ptr, ptr %7, align 8
  %9 = getelementptr inbounds nuw i8, ptr %8, i64 8
  %10 = load i32, ptr %9, align 8
  %11 = getelementptr inbounds nuw i8, ptr %1, i64 40
  %12 = getelementptr inbounds nuw i8, ptr %1, i64 24
  tail call void @add_conversation_table_data(ptr noundef %0, ptr noundef %3, ptr noundef nonnull @no_dst, i32 noundef 0, i32 noundef 0, i32 noundef 1, i32 noundef %10, ptr noundef nonnull %11, ptr noundef nonnull %12, ptr noundef nonnull @sll_ct_dissector_info, i32 noundef 0)
  ret i32 1
}